target datalayout = "e-m:e-p270:32:32-p271:32:32-p272:64:64-i64:64-i128:128-f80:128-n8:16:32:64-S128"
target triple = "x86_64-pc-linux-gnu"

%struct.DdManager = type { %struct.DdNode, ptr, ptr, ptr, ptr, ptr, ptr, ptr, i32, i32, double, double, double, i32, i32, i32, i32, i32, i32, ptr, ptr, %struct.DdSubtable, i32, i32, i32, i32, i32, i32, i32, double, i32, i32, i32, ptr, i64, double, i32, ptr, ptr, ptr, ptr, ptr, ptr, ptr, i32, ptr, ptr, ptr, ptr, ptr, ptr, i32, i32, i32, double, i32, i32, i32, i32, double, double, i32, i32, i32, i32, i32, i32, i32, i32, i32, ptr, ptr, i32, i32, i32, i32, i32, i32, ptr, ptr, ptr, ptr, ptr, ptr, ptr, ptr, i32, i64, i64, i64, i32, i64, i64, double, double, double, double, double, double, i32, ptr, ptr, i64 }
%struct.DdNode = type { i32, i32, ptr, %union.anon, i64 }
%union.anon = type { %struct.DdChildren }
%struct.DdChildren = type { ptr, ptr }
%struct.DdSubtable = type { ptr, i32, i32, i32, i32, i32, i32, i32, i32, i32, i32, i32 }

@s_BackTracks = internal global i32 0, align 4
@s_Field = internal global [8 x [256 x ptr]] zeroinitializer, align 16
@s_nVarsBest = internal global i32 0, align 4
@s_Encoded = internal global ptr null, align 8
@s_VarAll = internal global ptr null, align 8
@s_MultiStart = internal global i32 0, align 4
@s_Signature = internal global i32 1, align 4
@s_VarOrderBest = internal global [32 x i32] zeroinitializer, align 16
@s_MaxDepth = internal global i32 5, align 4
@s_BackTrackLimit = internal global i32 100, align 4
@s_VarOrderCur = internal global [32 x i32] zeroinitializer, align 16

; Function Attrs: nounwind uwtable
define internal ptr @ComputeVarSetAndCountMinterms(ptr noundef %0, ptr noundef %1, ptr noundef %2, ptr noundef %3) #0 {
  %5 = alloca ptr, align 8
  %6 = alloca ptr, align 8
  %7 = alloca ptr, align 8
  %8 = alloca ptr, align 8
  %9 = alloca ptr, align 8
  store ptr %0, ptr %5, align 8, !tbaa !3
  store ptr %1, ptr %6, align 8, !tbaa !28
  store ptr %2, ptr %7, align 8, !tbaa !28
  store ptr %3, ptr %8, align 8, !tbaa !31
  call void @llvm.lifetime.start.p0(i64 8, ptr %9) #6
  %10 = load ptr, ptr %5, align 8, !tbaa !3
  %11 = load ptr, ptr %6, align 8, !tbaa !28
  %12 = load ptr, ptr %7, align 8, !tbaa !28
  %13 = call ptr @Cudd_bddAnd(ptr noundef %10, ptr noundef %11, ptr noundef %12)
  store ptr %13, ptr %9, align 8, !tbaa !28
  %14 = load ptr, ptr %9, align 8, !tbaa !28
  call void @Cudd_Ref(ptr noundef %14)
  %15 = load i32, ptr @s_Signature, align 4, !tbaa !10
  %16 = add i32 %15, 1
  store i32 %16, ptr @s_Signature, align 4, !tbaa !10
  %17 = load ptr, ptr %5, align 8, !tbaa !3
  %18 = load ptr, ptr @s_Encoded, align 8, !tbaa !28
  %19 = load ptr, ptr %9, align 8, !tbaa !28
  %20 = load ptr, ptr @s_VarAll, align 8, !tbaa !28
  %21 = call i32 @Extra_CountCofactorMinterms(ptr noundef %17, ptr noundef %18, ptr noundef %19, ptr noundef %20)
  %22 = load ptr, ptr %8, align 8, !tbaa !31
  store i32 %21, ptr %22, align 4, !tbaa !10
  %23 = load ptr, ptr %9, align 8, !tbaa !28
  call void @Cudd_Deref(ptr noundef %23)
  %24 = load ptr, ptr %9, align 8, !tbaa !28
  call void @llvm.lifetime.end.p0(i64 8, ptr %9) #6
  ret ptr %24
}

; Function Attrs: nounwind uwtable
define internal void @EvaluateEncodings_rec(ptr noundef %0, ptr noundef %1, i32 noundef %2, i32 noundef %3, i32 noundef %4) #0 {
  %6 = alloca ptr, align 8
  %7 = alloca ptr, align 8
  %8 = alloca i32, align 4
  %9 = alloca i32, align 4
  %10 = alloca i32, align 4
  %11 = alloca i32, align 4
  %12 = alloca i32, align 4
  %13 = alloca i32, align 4
  %14 = alloca ptr, align 8
  %15 = alloca ptr, align 8
  %16 = alloca i32, align 4
  %17 = alloca i32, align 4
  %18 = alloca ptr, align 8
  %19 = alloca ptr, align 8
  %20 = alloca i32, align 4
  %21 = alloca i32, align 4
  %22 = alloca ptr, align 8
  store ptr %0, ptr %6, align 8, !tbaa !3
  store ptr %1, ptr %7, align 8, !tbaa !28
  store i32 %2, ptr %8, align 4, !tbaa !10
  store i32 %3, ptr %9, align 4, !tbaa !10
  store i32 %4, ptr %10, align 4, !tbaa !10
  call void @llvm.lifetime.start.p0(i64 4, ptr %11) #6
  call void @llvm.lifetime.start.p0(i64 4, ptr %12) #6
  call void @llvm.lifetime.start.p0(i64 4, ptr %13) #6
  %23 = load i32, ptr %10, align 4, !tbaa !10
  %24 = sub nsw i32 %23, 1
  %25 = shl i32 1, %24
  store i32 %25, ptr %13, align 4, !tbaa !10
  call void @llvm.lifetime.start.p0(i64 8, ptr %14) #6
  call void @llvm.lifetime.start.p0(i64 8, ptr %15) #6
  call void @llvm.lifetime.start.p0(i64 4, ptr %16) #6
  call void @llvm.lifetime.start.p0(i64 4, ptr %17) #6
  call void @llvm.lifetime.start.p0(i64 8, ptr %18) #6
  call void @llvm.lifetime.start.p0(i64 8, ptr %19) #6
  call void @llvm.lifetime.start.p0(i64 4, ptr %20) #6
  %26 = load i32, ptr %10, align 4, !tbaa !10
  %27 = load i32, ptr @s_MaxDepth, align 4, !tbaa !10
  %28 = icmp sgt i32 %26, %27
  br i1 %28, label %29, label %30

29:                                               ; preds = %5
  store i32 1, ptr %21, align 4
  br label %236

30:                                               ; preds = %5
  %31 = load ptr, ptr %7, align 8, !tbaa !28
  %32 = load ptr, ptr %6, align 8, !tbaa !3
  %33 = getelementptr inbounds nuw %struct.DdManager, ptr %32, i32 0, i32 1
  %34 = load ptr, ptr %33, align 8, !tbaa !12
  %35 = icmp eq ptr %31, %34
  br i1 %35, label %36, label %37

36:                                               ; preds = %30
  store i32 1, ptr %21, align 4
  br label %236

37:                                               ; preds = %30
  %38 = load i32, ptr @s_BackTracks, align 4, !tbaa !10
  %39 = load i32, ptr @s_BackTrackLimit, align 4, !tbaa !10
  %40 = icmp sgt i32 %38, %39
  br i1 %40, label %41, label %42

41:                                               ; preds = %37
  store i32 1, ptr %21, align 4
  br label %236

42:                                               ; preds = %37
  %43 = load i32, ptr @s_BackTracks, align 4, !tbaa !10
  %44 = add nsw i32 %43, 1
  store i32 %44, ptr @s_BackTracks, align 4, !tbaa !10
  %45 = load ptr, ptr %7, align 8, !tbaa !28
  store ptr %45, ptr %18, align 8, !tbaa !28
  br label %46

46:                                               ; preds = %230, %42
  %47 = load ptr, ptr %18, align 8, !tbaa !28
  %48 = load ptr, ptr %6, align 8, !tbaa !3
  %49 = getelementptr inbounds nuw %struct.DdManager, ptr %48, i32 0, i32 1
  %50 = load ptr, ptr %49, align 8, !tbaa !12
  %51 = icmp ne ptr %47, %50
  br i1 %51, label %52, label %235

52:                                               ; preds = %46
  %53 = load ptr, ptr %6, align 8, !tbaa !3
  %54 = getelementptr inbounds nuw %struct.DdManager, ptr %53, i32 0, i32 41
  %55 = load ptr, ptr %54, align 8, !tbaa !35
  %56 = load ptr, ptr %18, align 8, !tbaa !28
  %57 = getelementptr inbounds nuw %struct.DdNode, ptr %56, i32 0, i32 0
  %58 = load i32, ptr %57, align 8, !tbaa !33
  %59 = zext i32 %58 to i64
  %60 = getelementptr inbounds nuw ptr, ptr %55, i64 %59
  %61 = load ptr, ptr %60, align 8, !tbaa !28
  store ptr %61, ptr %19, align 8, !tbaa !28
  %62 = load ptr, ptr %18, align 8, !tbaa !28
  %63 = getelementptr inbounds nuw %struct.DdNode, ptr %62, i32 0, i32 0
  %64 = load i32, ptr %63, align 8, !tbaa !33
  %65 = load i32, ptr %10, align 4, !tbaa !10
  %66 = sub nsw i32 %65, 1
  %67 = sext i32 %66 to i64
  %68 = getelementptr inbounds [32 x i32], ptr @s_VarOrderCur, i64 0, i64 %67
  store i32 %64, ptr %68, align 4, !tbaa !10
  store i32 0, ptr %20, align 4, !tbaa !10
  store i32 0, ptr %11, align 4, !tbaa !10
  br label %69

69:                                               ; preds = %141, %52
  %70 = load i32, ptr %11, align 4, !tbaa !10
  %71 = load i32, ptr %13, align 4, !tbaa !10
  %72 = icmp slt i32 %70, %71
  br i1 %72, label %73, label %144

73:                                               ; preds = %69
  %74 = load ptr, ptr %6, align 8, !tbaa !3
  %75 = load i32, ptr %10, align 4, !tbaa !10
  %76 = sub nsw i32 %75, 1
  %77 = sext i32 %76 to i64
  %78 = getelementptr inbounds [8 x [256 x ptr]], ptr @s_Field, i64 0, i64 %77
  %79 = load i32, ptr %11, align 4, !tbaa !10
  %80 = sext i32 %79 to i64
  %81 = getelementptr inbounds [256 x ptr], ptr %78, i64 0, i64 %80
  %82 = load ptr, ptr %81, align 8, !tbaa !28
  %83 = load ptr, ptr %19, align 8, !tbaa !28
  %84 = ptrtoint ptr %83 to i64
  %85 = xor i64 %84, 1
  %86 = inttoptr i64 %85 to ptr
  %87 = call ptr @ComputeVarSetAndCountMinterms(ptr noundef %74, ptr noundef %82, ptr noundef %86, ptr noundef %16)
  store ptr %87, ptr %14, align 8, !tbaa !28
  %88 = load ptr, ptr %14, align 8, !tbaa !28
  call void @Cudd_Ref(ptr noundef %88)
  %89 = load i32, ptr %16, align 4, !tbaa !10
  %90 = uitofp i32 %89 to double
  %91 = load i32, ptr %9, align 4, !tbaa !10
  %92 = sub nsw i32 %91, 1
  %93 = call double @Extra_Power2(i32 noundef %92)
  %94 = fcmp ogt double %90, %93
  br i1 %94, label %95, label %98

95:                                               ; preds = %73
  %96 = load ptr, ptr %6, align 8, !tbaa !3
  %97 = load ptr, ptr %14, align 8, !tbaa !28
  call void @Cudd_RecursiveDeref(ptr noundef %96, ptr noundef %97)
  store i32 1, ptr %20, align 4, !tbaa !10
  br label %144

98:                                               ; preds = %73
  %99 = load ptr, ptr %6, align 8, !tbaa !3
  %100 = load i32, ptr %10, align 4, !tbaa !10
  %101 = sub nsw i32 %100, 1
  %102 = sext i32 %101 to i64
  %103 = getelementptr inbounds [8 x [256 x ptr]], ptr @s_Field, i64 0, i64 %102
  %104 = load i32, ptr %11, align 4, !tbaa !10
  %105 = sext i32 %104 to i64
  %106 = getelementptr inbounds [256 x ptr], ptr %103, i64 0, i64 %105
  %107 = load ptr, ptr %106, align 8, !tbaa !28
  %108 = load ptr, ptr %19, align 8, !tbaa !28
  %109 = call ptr @ComputeVarSetAndCountMinterms(ptr noundef %99, ptr noundef %107, ptr noundef %108, ptr noundef %17)
  store ptr %109, ptr %15, align 8, !tbaa !28
  %110 = load ptr, ptr %15, align 8, !tbaa !28
  call void @Cudd_Ref(ptr noundef %110)
  %111 = load i32, ptr %17, align 4, !tbaa !10
  %112 = uitofp i32 %111 to double
  %113 = load i32, ptr %9, align 4, !tbaa !10
  %114 = sub nsw i32 %113, 1
  %115 = call double @Extra_Power2(i32 noundef %114)
  %116 = fcmp ogt double %112, %115
  br i1 %116, label %117, label %122

117:                                              ; preds = %98
  %118 = load ptr, ptr %6, align 8, !tbaa !3
  %119 = load ptr, ptr %14, align 8, !tbaa !28
  call void @Cudd_RecursiveDeref(ptr noundef %118, ptr noundef %119)
  %120 = load ptr, ptr %6, align 8, !tbaa !3
  %121 = load ptr, ptr %15, align 8, !tbaa !28
  call void @Cudd_RecursiveDeref(ptr noundef %120, ptr noundef %121)
  store i32 1, ptr %20, align 4, !tbaa !10
  br label %144

122:                                              ; preds = %98
  %123 = load ptr, ptr %14, align 8, !tbaa !28
  %124 = load i32, ptr %10, align 4, !tbaa !10
  %125 = sext i32 %124 to i64
  %126 = getelementptr inbounds [8 x [256 x ptr]], ptr @s_Field, i64 0, i64 %125
  %127 = load i32, ptr %11, align 4, !tbaa !10
  %128 = mul nsw i32 2, %127
  %129 = add nsw i32 %128, 0
  %130 = sext i32 %129 to i64
  %131 = getelementptr inbounds [256 x ptr], ptr %126, i64 0, i64 %130
  store ptr %123, ptr %131, align 8, !tbaa !28
  %132 = load ptr, ptr %15, align 8, !tbaa !28
  %133 = load i32, ptr %10, align 4, !tbaa !10
  %134 = sext i32 %133 to i64
  %135 = getelementptr inbounds [8 x [256 x ptr]], ptr @s_Field, i64 0, i64 %134
  %136 = load i32, ptr %11, align 4, !tbaa !10
  %137 = mul nsw i32 2, %136
  %138 = add nsw i32 %137, 1
  %139 = sext i32 %138 to i64
  %140 = getelementptr inbounds [256 x ptr], ptr %135, i64 0, i64 %139
  store ptr %132, ptr %140, align 8, !tbaa !28
  br label %141

141:                                              ; preds = %122
  %142 = load i32, ptr %11, align 4, !tbaa !10
  %143 = add nsw i32 %142, 1
  store i32 %143, ptr %11, align 4, !tbaa !10
  br label %69, !llvm.loop !36

144:                                              ; preds = %117, %95, %69
  %145 = load i32, ptr %20, align 4, !tbaa !10
  %146 = icmp ne i32 %145, 0
  br i1 %146, label %190, label %147

147:                                              ; preds = %144
  call void @llvm.lifetime.start.p0(i64 8, ptr %22) #6
  %148 = load i32, ptr @s_nVarsBest, align 4, !tbaa !10
  %149 = load i32, ptr %10, align 4, !tbaa !10
  %150 = icmp slt i32 %148, %149
  br i1 %150, label %151, label %169

151:                                              ; preds = %147
  %152 = load i32, ptr %10, align 4, !tbaa !10
  store i32 %152, ptr @s_nVarsBest, align 4, !tbaa !10
  store i32 0, ptr %12, align 4, !tbaa !10
  br label %153

153:                                              ; preds = %165, %151
  %154 = load i32, ptr %12, align 4, !tbaa !10
  %155 = load i32, ptr %10, align 4, !tbaa !10
  %156 = icmp slt i32 %154, %155
  br i1 %156, label %157, label %168

157:                                              ; preds = %153
  %158 = load i32, ptr %12, align 4, !tbaa !10
  %159 = sext i32 %158 to i64
  %160 = getelementptr inbounds [32 x i32], ptr @s_VarOrderCur, i64 0, i64 %159
  %161 = load i32, ptr %160, align 4, !tbaa !10
  %162 = load i32, ptr %12, align 4, !tbaa !10
  %163 = sext i32 %162 to i64
  %164 = getelementptr inbounds [32 x i32], ptr @s_VarOrderBest, i64 0, i64 %163
  store i32 %161, ptr %164, align 4, !tbaa !10
  br label %165

165:                                              ; preds = %157
  %166 = load i32, ptr %12, align 4, !tbaa !10
  %167 = add nsw i32 %166, 1
  store i32 %167, ptr %12, align 4, !tbaa !10
  br label %153, !llvm.loop !37

168:                                              ; preds = %153
  br label %169

169:                                              ; preds = %168, %147
  %170 = load i32, ptr %9, align 4, !tbaa !10
  %171 = sub nsw i32 %170, 1
  %172 = icmp sgt i32 %171, 0
  br i1 %172, label %173, label %189

173:                                              ; preds = %169
  %174 = load ptr, ptr %6, align 8, !tbaa !3
  %175 = load ptr, ptr %7, align 8, !tbaa !28
  %176 = load ptr, ptr %19, align 8, !tbaa !28
  %177 = call ptr @Cudd_bddExistAbstract(ptr noundef %174, ptr noundef %175, ptr noundef %176)
  store ptr %177, ptr %22, align 8, !tbaa !28
  %178 = load ptr, ptr %22, align 8, !tbaa !28
  call void @Cudd_Ref(ptr noundef %178)
  %179 = load ptr, ptr %6, align 8, !tbaa !3
  %180 = load ptr, ptr %22, align 8, !tbaa !28
  %181 = load i32, ptr %8, align 4, !tbaa !10
  %182 = sub nsw i32 %181, 1
  %183 = load i32, ptr %9, align 4, !tbaa !10
  %184 = sub nsw i32 %183, 1
  %185 = load i32, ptr %10, align 4, !tbaa !10
  %186 = add nsw i32 %185, 1
  call void @EvaluateEncodings_rec(ptr noundef %179, ptr noundef %180, i32 noundef %182, i32 noundef %184, i32 noundef %186)
  %187 = load ptr, ptr %6, align 8, !tbaa !3
  %188 = load ptr, ptr %22, align 8, !tbaa !28
  call void @Cudd_RecursiveDeref(ptr noundef %187, ptr noundef %188)
  br label %189

189:                                              ; preds = %173, %169
  call void @llvm.lifetime.end.p0(i64 8, ptr %22) #6
  br label %190

190:                                              ; preds = %189, %144
  store i32 0, ptr %12, align 4, !tbaa !10
  br label %191

191:                                              ; preds = %216, %190
  %192 = load i32, ptr %12, align 4, !tbaa !10
  %193 = load i32, ptr %11, align 4, !tbaa !10
  %194 = icmp slt i32 %192, %193
  br i1 %194, label %195, label %219

195:                                              ; preds = %191
  %196 = load ptr, ptr %6, align 8, !tbaa !3
  %197 = load i32, ptr %10, align 4, !tbaa !10
  %198 = sext i32 %197 to i64
  %199 = getelementptr inbounds [8 x [256 x ptr]], ptr @s_Field, i64 0, i64 %198
  %200 = load i32, ptr %12, align 4, !tbaa !10
  %201 = mul nsw i32 2, %200
  %202 = add nsw i32 %201, 0
  %203 = sext i32 %202 to i64
  %204 = getelementptr inbounds [256 x ptr], ptr %199, i64 0, i64 %203
  %205 = load ptr, ptr %204, align 8, !tbaa !28
  call void @Cudd_RecursiveDeref(ptr noundef %196, ptr noundef %205)
  %206 = load ptr, ptr %6, align 8, !tbaa !3
  %207 = load i32, ptr %10, align 4, !tbaa !10
  %208 = sext i32 %207 to i64
  %209 = getelementptr inbounds [8 x [256 x ptr]], ptr @s_Field, i64 0, i64 %208
  %210 = load i32, ptr %12, align 4, !tbaa !10
  %211 = mul nsw i32 2, %210
  %212 = add nsw i32 %211, 1
  %213 = sext i32 %212 to i64
  %214 = getelementptr inbounds [256 x ptr], ptr %209, i64 0, i64 %213
  %215 = load ptr, ptr %214, align 8, !tbaa !28
  call void @Cudd_RecursiveDeref(ptr noundef %206, ptr noundef %215)
  br label %216

216:                                              ; preds = %195
  %217 = load i32, ptr %12, align 4, !tbaa !10
  %218 = add nsw i32 %217, 1
  store i32 %218, ptr %12, align 4, !tbaa !10
  br label %191, !llvm.loop !38

219:                                              ; preds = %191
  %220 = load i32, ptr @s_nVarsBest, align 4, !tbaa !10
  %221 = load i32, ptr @s_MaxDepth, align 4, !tbaa !10
  %222 = icmp eq i32 %220, %221
  br i1 %222, label %223, label %224

223:                                              ; preds = %219
  store i32 1, ptr %21, align 4
  br label %236

224:                                              ; preds = %219
  %225 = load i32, ptr @s_nVarsBest, align 4, !tbaa !10
  %226 = load i32, ptr @s_MultiStart, align 4, !tbaa !10
  %227 = icmp eq i32 %225, %226
  br i1 %227, label %228, label %229

228:                                              ; preds = %224
  store i32 1, ptr %21, align 4
  br label %236

229:                                              ; preds = %224
  br label %230

230:                                              ; preds = %229
  %231 = load ptr, ptr %18, align 8, !tbaa !28
  %232 = getelementptr inbounds nuw %struct.DdNode, ptr %231, i32 0, i32 3
  %233 = getelementptr inbounds nuw %struct.DdChildren, ptr %232, i32 0, i32 0
  %234 = load ptr, ptr %233, align 8, !tbaa !39
  store ptr %234, ptr %18, align 8, !tbaa !28
  br label %46, !llvm.loop !40

235:                                              ; preds = %46
  store i32 0, ptr %21, align 4
  br label %236

236:                                              ; preds = %235, %228, %223, %41, %36, %29
  call void @llvm.lifetime.end.p0(i64 4, ptr %20) #6
  call void @llvm.lifetime.end.p0(i64 8, ptr %19) #6
  call void @llvm.lifetime.end.p0(i64 8, ptr %18) #6
  call void @llvm.lifetime.end.p0(i64 4, ptr %17) #6
  call void @llvm.lifetime.end.p0(i64 4, ptr %16) #6
  call void @llvm.lifetime.end.p0(i64 8, ptr %15) #6
  call void @llvm.lifetime.end.p0(i64 8, ptr %14) #6
  call void @llvm.lifetime.end.p0(i64 4, ptr %13) #6
  call void @llvm.lifetime.end.p0(i64 4, ptr %12) #6
  call void @llvm.lifetime.end.p0(i64 4, ptr %11) #6
  %237 = load i32, ptr %21, align 4
  switch i32 %237, label %239 [
    i32 0, label %238
    i32 1, label %238
  ]

238:                                              ; preds = %236, %236
  ret void

239:                                              ; preds = %236
  unreachable
}