; Function Attrs: nounwind uwtable
define internal fastcc void @EvaluateEncodings_rec(ptr noundef %0, ptr noundef %1, i32 noundef %2, i32 noundef %3, i32 noundef range(i32 1, 7) %4) unnamed_addr #0 {
  %6 = add nsw i32 %4, -1
  %7 = icmp samesign ugt i32 %4, 5
  br i1 %7, label %.loopexit79, label %8

8:                                                ; preds = %5
  %9 = getelementptr inbounds nuw i8, ptr %0, i64 40
  %10 = load ptr, ptr %9, align 8, !tbaa !3
  %11 = icmp eq ptr %1, %10
  br i1 %11, label %.loopexit79, label %12

12:                                               ; preds = %8
  %13 = load i32, ptr @s_BackTracks, align 4, !tbaa !29
  %14 = icmp sgt i32 %13, 100
  br i1 %14, label %.loopexit79, label %.lr.ph91

.lr.ph91:                                         ; preds = %12
  %15 = add nsw i32 %13, 1
  store i32 %15, ptr @s_BackTracks, align 4, !tbaa !29
  %16 = getelementptr inbounds nuw i8, ptr %0, i64 344
  %17 = zext nneg i32 %6 to i64
  %18 = getelementptr inbounds nuw [32 x i32], ptr @s_VarOrderCur, i64 0, i64 %17
  %19 = add nsw i32 %3, -1
  %20 = zext nneg i32 %4 to i64
  %21 = icmp sgt i32 %3, 1
  %22 = add nsw i32 %2, -1
  %23 = add nuw nsw i32 %4, 1
  %24 = shl nuw nsw i64 %20, 2
  br label %25

25:                                               ; preds = %.lr.ph91, %79
  %.06989 = phi ptr [ %1, %.lr.ph91 ], [ %81, %79 ]
  %26 = load ptr, ptr %16, align 8, !tbaa !31
  %27 = load i32, ptr %.06989, align 8, !tbaa !28
  %28 = zext i32 %27 to i64
  %29 = getelementptr inbounds nuw ptr, ptr %26, i64 %28
  %30 = load ptr, ptr %29, align 8, !tbaa !24
  store i32 %27, ptr %18, align 4, !tbaa !29
  %31 = ptrtoint ptr %30 to i64
  %32 = xor i64 %31, 1
  %33 = inttoptr i64 %32 to ptr
  br label %34

34:                                               ; preds = %25, %58
  %indvars.iv = phi i64 [ 0, %25 ], [ %indvars.iv.next, %58 ]
  %35 = getelementptr inbounds nuw [8 x [256 x ptr]], ptr @s_Field, i64 0, i64 %17, i64 %indvars.iv
  %36 = load ptr, ptr %35, align 8, !tbaa !24
  %37 = tail call ptr @Cudd_bddAnd(ptr noundef %0, ptr noundef %36, ptr noundef %33) #11
  tail call void @Cudd_Ref(ptr noundef %37) #11
  %38 = load i32, ptr @s_Signature, align 4, !tbaa !29
  %39 = add i32 %38, 1
  store i32 %39, ptr @s_Signature, align 4, !tbaa !29
  %40 = load ptr, ptr @s_Encoded, align 8, !tbaa !24
  %41 = load ptr, ptr @s_VarAll, align 8, !tbaa !24
  %42 = tail call i32 @Extra_CountCofactorMinterms(ptr noundef %0, ptr noundef %40, ptr noundef %37, ptr noundef %41)
  tail call void @Cudd_Deref(ptr noundef %37) #11
  tail call void @Cudd_Ref(ptr noundef %37) #11
  %43 = uitofp i32 %42 to double
  %44 = tail call double @Extra_Power2(i32 noundef %19) #11
  %45 = fcmp olt double %44, %43
  br i1 %45, label %.loopexit125, label %46

46:                                               ; preds = %34
  %47 = load ptr, ptr %35, align 8, !tbaa !24
  %48 = tail call ptr @Cudd_bddAnd(ptr noundef %0, ptr noundef %47, ptr noundef %30) #11
  tail call void @Cudd_Ref(ptr noundef %48) #11
  %49 = load i32, ptr @s_Signature, align 4, !tbaa !29
  %50 = add i32 %49, 1
  store i32 %50, ptr @s_Signature, align 4, !tbaa !29
  %51 = load ptr, ptr @s_Encoded, align 8, !tbaa !24
  %52 = load ptr, ptr @s_VarAll, align 8, !tbaa !24
  %53 = tail call i32 @Extra_CountCofactorMinterms(ptr noundef %0, ptr noundef %51, ptr noundef %48, ptr noundef %52)
  tail call void @Cudd_Deref(ptr noundef %48) #11
  tail call void @Cudd_Ref(ptr noundef %48) #11
  %54 = uitofp i32 %53 to double
  %55 = tail call double @Extra_Power2(i32 noundef %19) #11
  %56 = fcmp olt double %55, %54
  br i1 %56, label %57, label %58

57:                                               ; preds = %46
  tail call void @Cudd_RecursiveDeref(ptr noundef %0, ptr noundef %37) #11
  br label %.loopexit125

58:                                               ; preds = %46
  %59 = shl nuw nsw i64 %indvars.iv, 1
  %60 = getelementptr inbounds nuw [8 x [256 x ptr]], ptr @s_Field, i64 0, i64 %20, i64 %59
  store ptr %37, ptr %60, align 16, !tbaa !24
  %61 = or disjoint i64 %59, 1
  %62 = getelementptr inbounds nuw [8 x [256 x ptr]], ptr @s_Field, i64 0, i64 %20, i64 %61
  store ptr %48, ptr %62, align 8, !tbaa !24
  %indvars.iv.next = add nuw nsw i64 %indvars.iv, 1
  %63 = trunc nuw i64 %indvars.iv.next to i32
  %.0.highbits = lshr i32 %63, %6
  %.not76 = icmp eq i32 %.0.highbits, 0
  br i1 %.not76, label %34, label %.critedge, !llvm.loop !32

.critedge:                                        ; preds = %58
  %64 = load i32, ptr @s_nVarsBest, align 4, !tbaa !29
  %65 = icmp slt i32 %64, %4
  br i1 %65, label %.loopexit.loopexit, label %.loopexit

.loopexit.loopexit:                               ; preds = %.critedge
  store i32 %4, ptr @s_nVarsBest, align 4, !tbaa !29
  tail call void @llvm.memcpy.p0.p0.i64(ptr noundef nonnull align 16 dereferenceable(1) @s_VarOrderBest, ptr noundef nonnull align 16 dereferenceable(1) @s_VarOrderCur, i64 %24, i1 false), !tbaa !29
  br label %.loopexit

.loopexit:                                        ; preds = %.loopexit.loopexit, %.critedge
  br i1 %21, label %66, label %.lr.ph.preheader

66:                                               ; preds = %.loopexit
  %67 = tail call ptr @Cudd_bddExistAbstract(ptr noundef %0, ptr noundef %1, ptr noundef %30) #11
  tail call void @Cudd_Ref(ptr noundef %67) #11
  tail call fastcc void @EvaluateEncodings_rec(ptr noundef %0, ptr noundef %67, i32 noundef %22, i32 noundef %19, i32 noundef %23)
  tail call void @Cudd_RecursiveDeref(ptr noundef %0, ptr noundef %67) #11
  br label %.lr.ph.preheader

.loopexit125:                                     ; preds = %34, %57
  %.lcssa.sink = phi ptr [ %48, %57 ], [ %37, %34 ]
  tail call void @Cudd_RecursiveDeref(ptr noundef %0, ptr noundef %.lcssa.sink) #11
  %68 = and i64 %indvars.iv, 4294967295
  %.not93 = icmp eq i64 %68, 0
  br i1 %.not93, label %._crit_edge, label %.lr.ph.preheader

.lr.ph.preheader:                                 ; preds = %66, %.loopexit, %.loopexit125
  %.082110 = phi i64 [ %indvars.iv, %.loopexit125 ], [ %indvars.iv.next, %.loopexit ], [ %indvars.iv.next, %66 ]
  %wide.trip.count = and i64 %.082110, 4294967295
  br label %.lr.ph

.lr.ph:                                           ; preds = %.lr.ph.preheader, %.lr.ph
  %indvars.iv105 = phi i64 [ 0, %.lr.ph.preheader ], [ %indvars.iv.next106, %.lr.ph ]
  %69 = shl nuw nsw i64 %indvars.iv105, 1
  %70 = getelementptr inbounds nuw [8 x [256 x ptr]], ptr @s_Field, i64 0, i64 %20, i64 %69
  %71 = load ptr, ptr %70, align 16, !tbaa !24
  tail call void @Cudd_RecursiveDeref(ptr noundef %0, ptr noundef %71) #11
  %72 = or disjoint i64 %69, 1
  %73 = getelementptr inbounds nuw [8 x [256 x ptr]], ptr @s_Field, i64 0, i64 %20, i64 %72
  %74 = load ptr, ptr %73, align 8, !tbaa !24
  tail call void @Cudd_RecursiveDeref(ptr noundef %0, ptr noundef %74) #11
  %indvars.iv.next106 = add nuw nsw i64 %indvars.iv105, 1
  %exitcond.not = icmp eq i64 %indvars.iv.next106, %wide.trip.count
  br i1 %exitcond.not, label %._crit_edge, label %.lr.ph, !llvm.loop !33

._crit_edge:                                      ; preds = %.lr.ph, %.loopexit125
  %75 = load i32, ptr @s_nVarsBest, align 4, !tbaa !29
  %76 = icmp eq i32 %75, 5
  %77 = load i32, ptr @s_MultiStart, align 4
  %78 = icmp eq i32 %75, %77
  %or.cond = select i1 %76, i1 true, i1 %78
  br i1 %or.cond, label %.loopexit79, label %79

79:                                               ; preds = %._crit_edge
  %80 = getelementptr inbounds nuw i8, ptr %.06989, i64 16
  %81 = load ptr, ptr %80, align 8, !tbaa !34
  %82 = load ptr, ptr %9, align 8, !tbaa !3
  %.not = icmp eq ptr %81, %82
  br i1 %.not, label %.loopexit79, label %25, !llvm.loop !35

.loopexit79:                                      ; preds = %._crit_edge, %79, %12, %8, %5
  ret void
}